target datalayout = "e-m:e-p270:32:32-p271:32:32-p272:64:64-i64:64-i128:128-f80:128-n8:16:32:64-S128"
target triple = "x86_64-pc-linux-gnu"

; Function Attrs: nounwind uwtable
define hidden i32 @mbedtls_ssl_tls13_check_sig_alg_cert_key_match(i16 noundef zeroext %0, ptr noundef %1) #0 {
  %3 = alloca i32, align 4
  %4 = alloca i16, align 2
  %5 = alloca ptr, align 8
  %6 = alloca i32, align 4
  %7 = alloca i64, align 8
  %8 = alloca i32, align 4
  store i16 %0, ptr %4, align 2, !tbaa !32
  store ptr %1, ptr %5, align 8, !tbaa !89
  call void @llvm.lifetime.start.p0(i64 4, ptr %6) #10
  %9 = load ptr, ptr %5, align 8, !tbaa !89
  %10 = call zeroext i8 @mbedtls_ssl_sig_from_pk(ptr noundef %9)
  %11 = zext i8 %10 to i32
  store i32 %11, ptr %6, align 4, !tbaa !8
  call void @llvm.lifetime.start.p0(i64 8, ptr %7) #10
  %12 = load ptr, ptr %5, align 8, !tbaa !89
  %13 = call i64 @mbedtls_pk_get_bitlen(ptr noundef %12)
  store i64 %13, ptr %7, align 8, !tbaa !28
  %14 = load i32, ptr %6, align 4, !tbaa !8
  switch i32 %14, label %40 [
    i32 3, label %15
    i32 1, label %34
  ]

15:                                               ; preds = %2
  %16 = load i64, ptr %7, align 8, !tbaa !28
  switch i64 %16, label %32 [
    i64 256, label %17
    i64 384, label %22
    i64 521, label %27
  ]

17:                                               ; preds = %15
  %18 = load i16, ptr %4, align 2, !tbaa !32
  %19 = zext i16 %18 to i32
  %20 = icmp eq i32 %19, 1027
  %21 = zext i1 %20 to i32
  store i32 %21, ptr %3, align 4
  store i32 1, ptr %8, align 4
  br label %42

22:                                               ; preds = %15
  %23 = load i16, ptr %4, align 2, !tbaa !32
  %24 = zext i16 %23 to i32
  %25 = icmp eq i32 %24, 1283
  %26 = zext i1 %25 to i32
  store i32 %26, ptr %3, align 4
  store i32 1, ptr %8, align 4
  br label %42

27:                                               ; preds = %15
  %28 = load i16, ptr %4, align 2, !tbaa !32
  %29 = zext i16 %28 to i32
  %30 = icmp eq i32 %29, 1539
  %31 = zext i1 %30 to i32
  store i32 %31, ptr %3, align 4
  store i32 1, ptr %8, align 4
  br label %42

32:                                               ; preds = %15
  br label %33

33:                                               ; preds = %32
  br label %41

34:                                               ; preds = %2
  %35 = load i16, ptr %4, align 2, !tbaa !32
  %36 = zext i16 %35 to i32
  switch i32 %36, label %38 [
    i32 2052, label %37
    i32 2053, label %37
    i32 2054, label %37
  ]

37:                                               ; preds = %34, %34, %34
  store i32 1, ptr %3, align 4
  store i32 1, ptr %8, align 4
  br label %42

38:                                               ; preds = %34
  br label %39

39:                                               ; preds = %38
  br label %41

40:                                               ; preds = %2
  br label %41

41:                                               ; preds = %40, %39, %33
  store i32 0, ptr %3, align 4
  store i32 1, ptr %8, align 4
  br label %42

42:                                               ; preds = %41, %37, %27, %22, %17
  call void @llvm.lifetime.end.p0(i64 8, ptr %7) #10
  call void @llvm.lifetime.end.p0(i64 4, ptr %6) #10
  %43 = load i32, ptr %3, align 4
  ret i32 %43
}