; Function Attrs: nounwind uwtable
define hidden range(i32 0, 2) i32 @mbedtls_ssl_tls13_check_sig_alg_cert_key_match(i16 noundef zeroext %0, ptr noundef %1) local_unnamed_addr #0 {
  %3 = tail call zeroext i8 @mbedtls_ssl_sig_from_pk(ptr noundef %1) #8
  %4 = tail call i64 @mbedtls_pk_get_bitlen(ptr noundef %1) #8
  switch i8 %3, label %13 [
    i8 3, label %5
    i8 1, label %12
  ]

5:                                                ; preds = %2
  switch i64 %4, label %13 [
    i64 256, label %6
    i64 384, label %8
    i64 521, label %10
  ]

6:                                                ; preds = %5
  %7 = icmp eq i16 %0, 1027
  br label %14

8:                                                ; preds = %5
  %9 = icmp eq i16 %0, 1283
  br label %14

10:                                               ; preds = %5
  %11 = icmp eq i16 %0, 1539
  br label %14

12:                                               ; preds = %2
  %.off = add i16 %0, -2052
  %switch = icmp ult i16 %.off, 3
  br i1 %switch, label %14, label %13

13:                                               ; preds = %12, %2, %5
  br label %14

14:                                               ; preds = %12, %13, %10, %8, %6
  %.0.shrunk = phi i1 [ false, %13 ], [ %11, %10 ], [ %9, %8 ], [ %7, %6 ], [ true, %12 ]
  %.0 = zext i1 %.0.shrunk to i32
  ret i32 %.0
}